; ModuleID = '38/1335.c'
source_filename = "38/1335.c"
target datalayout = "e-m:e-p270:32:32-p271:32:32-p272:64:64-i64:64-f80:128-n8:16:32:64-S128"
target triple = "x86_64-pc-linux-gnu"

@.str = private unnamed_addr constant [3 x i8] c"%d\00", align 1
@.str.1 = private unnamed_addr constant [4 x i8] c"%lf\00", align 1
@.str.2 = private unnamed_addr constant [6 x i8] c"%.5f\0A\00", align 1

; Function Attrs: noinline nounwind uwtable
define dso_local void @main() #0 {
  %1 = alloca i32, align 4
  %2 = alloca i32, align 4
  %3 = alloca i32, align 4
  %4 = alloca i32, align 4
  %5 = alloca i32, align 4
  %6 = alloca [100 x double*], align 16
  %7 = alloca double, align 8
  %8 = alloca double, align 8
  %9 = alloca double, align 8
  %10 = alloca double, align 8
  %11 = alloca double, align 8
  %12 = alloca double, align 8
  %13 = alloca double, align 8
  store double 0.000000e+00, double* %8, align 8
  store double 0.000000e+00, double* %9, align 8
  store double 0.000000e+00, double* %12, align 8
  %14 = call i32 (i8*, ...) @__isoc99_scanf(i8* getelementptr inbounds ([3 x i8], [3 x i8]* @.str, i64 0, i64 0), i32* %1)
  store i32 0, i32* %4, align 4
  br label %15

15:                                               ; preds = %94, %0
  %16 = load i32, i32* %4, align 4
  %17 = load i32, i32* %1, align 4
  %18 = icmp slt i32 %16, %17
  br i1 %18, label %19, label %97

19:                                               ; preds = %15
  store double 0.000000e+00, double* %7, align 8
  store double 0.000000e+00, double* %8, align 8
  store double 0.000000e+00, double* %9, align 8
  store double 0.000000e+00, double* %10, align 8
  store double 0.000000e+00, double* %11, align 8
  store double 0.000000e+00, double* %12, align 8
  store double 0.000000e+00, double* %13, align 8
  %20 = call i32 (i8*, ...) @__isoc99_scanf(i8* getelementptr inbounds ([3 x i8], [3 x i8]* @.str, i64 0, i64 0), i32* %5)
  store i32 0, i32* %3, align 4
  br label %21

21:                                               ; preds = %32, %19
  %22 = load i32, i32* %3, align 4
  %23 = load i32, i32* %5, align 4
  %24 = icmp slt i32 %22, %23
  br i1 %24, label %25, label %35

25:                                               ; preds = %21
  %26 = call noalias i8* @malloc(i64 800) #3
  %27 = bitcast i8* %26 to double*
  %28 = getelementptr inbounds [100 x double*], [100 x double*]* %6, i64 0, i64 0
  %29 = load i32, i32* %3, align 4
  %30 = sext i32 %29 to i64
  %31 = getelementptr inbounds double*, double** %28, i64 %30
  store double* %27, double** %31, align 8
  br label %32

32:                                               ; preds = %25
  %33 = load i32, i32* %3, align 4
  %34 = add nsw i32 %33, 1
  store i32 %34, i32* %3, align 4
  br label %21

35:                                               ; preds = %21
  store i32 0, i32* %3, align 4
  br label %36

36:                                               ; preds = %55, %35
  %37 = load i32, i32* %3, align 4
  %38 = load i32, i32* %5, align 4
  %39 = icmp slt i32 %37, %38
  br i1 %39, label %40, label %58

40:                                               ; preds = %36
  %41 = getelementptr inbounds [100 x double*], [100 x double*]* %6, i64 0, i64 0
  %42 = load i32, i32* %3, align 4
  %43 = sext i32 %42 to i64
  %44 = getelementptr inbounds double*, double** %41, i64 %43
  %45 = load double*, double** %44, align 8
  %46 = call i32 (i8*, ...) @__isoc99_scanf(i8* getelementptr inbounds ([4 x i8], [4 x i8]* @.str.1, i64 0, i64 0), double* %45)
  %47 = load double, double* %8, align 8
  %48 = getelementptr inbounds [100 x double*], [100 x double*]* %6, i64 0, i64 0
  %49 = load i32, i32* %3, align 4
  %50 = sext i32 %49 to i64
  %51 = getelementptr inbounds double*, double** %48, i64 %50
  %52 = load double*, double** %51, align 8
  %53 = load double, double* %52, align 8
  %54 = fadd double %47, %53
  store double %54, double* %8, align 8
  br label %55

55:                                               ; preds = %40
  %56 = load i32, i32* %3, align 4
  %57 = add nsw i32 %56, 1
  store i32 %57, i32* %3, align 4
  br label %36

58:                                               ; preds = %36
  %59 = load double, double* %8, align 8
  %60 = load i32, i32* %5, align 4
  %61 = sitofp i32 %60 to double
  %62 = fdiv double %59, %61
  store double %62, double* %7, align 8
  store i32 0, i32* %3, align 4
  br label %63

63:                                               ; preds = %82, %58
  %64 = load i32, i32* %3, align 4
  %65 = load i32, i32* %5, align 4
  %66 = icmp slt i32 %64, %65
  br i1 %66, label %67, label %85

67:                                               ; preds = %63
  %68 = getelementptr inbounds [100 x double*], [100 x double*]* %6, i64 0, i64 0
  %69 = load i32, i32* %3, align 4
  %70 = sext i32 %69 to i64
  %71 = getelementptr inbounds double*, double** %68, i64 %70
  %72 = load double*, double** %71, align 8
  %73 = load double, double* %72, align 8
  %74 = load double, double* %7, align 8
  %75 = fsub double %73, %74
  store double %75, double* %10, align 8
  %76 = load double, double* %10, align 8
  %77 = load double, double* %10, align 8
  %78 = fmul double %76, %77
  store double %78, double* %11, align 8
  %79 = load double, double* %12, align 8
  %80 = load double, double* %11, align 8
  %81 = fadd double %79, %80
  store double %81, double* %12, align 8
  br label %82

82:                                               ; preds = %67
  %83 = load i32, i32* %3, align 4
  %84 = add nsw i32 %83, 1
  store i32 %84, i32* %3, align 4
  br label %63

85:                                               ; preds = %63
  %86 = load double, double* %12, align 8
  %87 = load i32, i32* %5, align 4
  %88 = sitofp i32 %87 to double
  %89 = fdiv double %86, %88
  store double %89, double* %13, align 8
  %90 = load double, double* %13, align 8
  %91 = call double @sqrt(double %90) #3
  store double %91, double* %9, align 8
  %92 = load double, double* %9, align 8
  %93 = call i32 (i8*, ...) @printf(i8* getelementptr inbounds ([6 x i8], [6 x i8]* @.str.2, i64 0, i64 0), double %92)
  br label %94

94:                                               ; preds = %85
  %95 = load i32, i32* %4, align 4
  %96 = add nsw i32 %95, 1
  store i32 %96, i32* %4, align 4
  br label %15

97:                                               ; preds = %15
  ret void
}

declare dso_local i32 @__isoc99_scanf(i8*, ...) #1

; Function Attrs: nounwind
declare dso_local noalias i8* @malloc(i64) #2

; Function Attrs: nounwind
declare dso_local double @sqrt(double) #2

declare dso_local i32 @printf(i8*, ...) #1


!llvm.module.flags = !{!0}
!llvm.ident = !{!1}

!0 = !{i32 1, !"wchar_size", i32 4}
!1 = !{!"clang version 10.0.0-4ubuntu1 "}
